target datalayout = "e-m:e-p270:32:32-p271:32:32-p272:64:64-i64:64-i128:128-f80:128-n8:16:32:64-S128"
target triple = "x86_64-pc-linux-gnu"

@__itt_sync_create_ptr__3_0 = external global ptr, align 8
@.str = private unnamed_addr constant [22 x i8] c"tbb::queuing_rw_mutex\00", align 1
@.str.1 = private unnamed_addr constant [1 x i8] zeroinitializer, align 1

; Function Attrs: mustprogress nounwind sspstrong uwtable
define linkonce_odr void @_ZN3tbb6detail2d023suppress_unused_warningIJRNS0_2d116queuing_rw_mutexEEEEvDpOT_(ptr noundef nonnull align 8 dereferenceable(8) %0) #1 comdat {
  %2 = alloca ptr, align 8
  store ptr %0, ptr %2, align 8, !tbaa !3
  ret void
}

; Function Attrs: mustprogress sspstrong uwtable
define linkonce_odr void @_ZN3tbb6detail2r121queuing_rw_mutex_impl9constructERNS0_2d116queuing_rw_mutexE(ptr noundef nonnull align 8 dereferenceable(8) %0) #0 comdat align 2 {
  %2 = alloca ptr, align 8
  store ptr %0, ptr %2, align 8, !tbaa !3
  %3 = load ptr, ptr %2, align 8, !tbaa !3
  call void @_ZN3tbb6detail2d023suppress_unused_warningIJRNS0_2d116queuing_rw_mutexEEEEvDpOT_(ptr noundef nonnull align 8 dereferenceable(8) %3)
  %4 = load ptr, ptr @__itt_sync_create_ptr__3_0, align 8, !tbaa !21
  %5 = icmp ne ptr %4, null
  br i1 %5, label %7, label %6

6:                                                ; preds = %1
  br label %10

7:                                                ; preds = %1
  %8 = load ptr, ptr @__itt_sync_create_ptr__3_0, align 8, !tbaa !21
  %9 = load ptr, ptr %2, align 8, !tbaa !3
  call void %8(ptr noundef %9, ptr noundef @.str, ptr noundef @.str.1, i32 noundef 2)
  br label %10

10:                                               ; preds = %7, %6
  ret void
}

; Function Attrs: mustprogress sspstrong uwtable
define void @_ZN3tbb6detail2r19constructERNS0_2d116queuing_rw_mutexE(ptr noundef nonnull align 8 dereferenceable(8) %0) #0 {
  %2 = alloca ptr, align 8
  store ptr %0, ptr %2, align 8, !tbaa !3
  %3 = load ptr, ptr %2, align 8, !tbaa !3
  call void @_ZN3tbb6detail2r121queuing_rw_mutex_impl9constructERNS0_2d116queuing_rw_mutexE(ptr noundef nonnull align 8 dereferenceable(8) %3)
  ret void
}