; Function Attrs: mustprogress sspstrong uwtable
define void @_ZN3tbb6detail2r19constructERNS0_2d116queuing_rw_mutexE(ptr noundef nonnull align 8 dereferenceable(8) %0) local_unnamed_addr #0 {
  %2 = load ptr, ptr @__itt_sync_create_ptr__3_0, align 8, !tbaa !14
  %.not.i = icmp eq ptr %2, null
  br i1 %.not.i, label %_ZN3tbb6detail2r121queuing_rw_mutex_impl9constructERNS0_2d116queuing_rw_mutexE.exit, label %3

3:                                                ; preds = %1
  tail call void %2(ptr noundef nonnull align 8 dereferenceable(8) %0, ptr noundef nonnull @.str, ptr noundef nonnull @.str.1, i32 noundef 2)
  br label %_ZN3tbb6detail2r121queuing_rw_mutex_impl9constructERNS0_2d116queuing_rw_mutexE.exit

_ZN3tbb6detail2r121queuing_rw_mutex_impl9constructERNS0_2d116queuing_rw_mutexE.exit: ; preds = %1, %3
  ret void
}